target datalayout = "e-m:e-p270:32:32-p271:32:32-p272:64:64-i64:64-i128:128-f80:128-n8:16:32:64-S128"
target triple = "x86_64-pc-linux-gnu"

%"class.clang::CXXBasePaths" = type <{ ptr, %"class.std::__cxx11::list", %"class.llvm::SmallDenseMap", %"class.llvm::SmallPtrSet", ptr, %"class.clang::CXXBasePath", i8, i8, i8, [5 x i8] }>
%"class.std::__cxx11::list" = type { %"class.std::__cxx11::_List_base" }
%"class.std::__cxx11::_List_base" = type { %"struct.std::__cxx11::_List_base<clang::CXXBasePath, std::allocator<clang::CXXBasePath>>::_List_impl" }
%"struct.std::__cxx11::_List_base<clang::CXXBasePath, std::allocator<clang::CXXBasePath>>::_List_impl" = type { %"struct.std::__detail::_List_node_header" }
%"struct.std::__detail::_List_node_header" = type { %"struct.std::__detail::_List_node_base", i64 }
%"struct.std::__detail::_List_node_base" = type { ptr, ptr }
%"class.llvm::SmallDenseMap" = type { i32, i32, %"struct.llvm::AlignedCharArrayUnion" }
%"struct.llvm::AlignedCharArrayUnion" = type { [128 x i8] }
%"class.llvm::SmallPtrSet" = type { %"class.llvm::SmallPtrSetImpl.base", [4 x ptr] }
%"class.llvm::SmallPtrSetImpl.base" = type { %"class.llvm::SmallPtrSetImplBase.base" }
%"class.llvm::SmallPtrSetImplBase.base" = type <{ ptr, ptr, i32, i32, i32 }>
%"class.clang::CXXBasePath" = type { %"class.llvm::SmallVector", i32, [4 x i8], %"class.clang::DeclListNode::iterator" }
%"class.llvm::SmallVector" = type { %"class.llvm::SmallVectorImpl", %"struct.llvm::SmallVectorStorage" }
%"class.llvm::SmallVectorImpl" = type { %"class.llvm::SmallVectorTemplateBase" }
%"class.llvm::SmallVectorTemplateBase" = type { %"class.llvm::SmallVectorTemplateCommon" }
%"class.llvm::SmallVectorTemplateCommon" = type { %"class.llvm::SmallVectorBase" }
%"class.llvm::SmallVectorBase" = type { ptr, i32, i32 }
%"struct.llvm::SmallVectorStorage" = type { [96 x i8] }
%"class.clang::DeclListNode::iterator" = type { %"class.llvm::PointerUnion" }
%"class.llvm::PointerUnion" = type { %"class.llvm::pointer_union_detail::PointerUnionMembers" }
%"class.llvm::pointer_union_detail::PointerUnionMembers" = type { %"class.llvm::pointer_union_detail::PointerUnionMembers.0" }
%"class.llvm::pointer_union_detail::PointerUnionMembers.0" = type { %"class.llvm::pointer_union_detail::PointerUnionMembers.1" }
%"class.llvm::pointer_union_detail::PointerUnionMembers.1" = type { %"class.llvm::PointerIntPair.2" }
%"class.llvm::PointerIntPair.2" = type { %"struct.llvm::detail::PunnedPointer.3" }
%"struct.llvm::detail::PunnedPointer.3" = type { [8 x i8] }
%"class.llvm::function_ref" = type { ptr, i64 }
%class.anon = type { ptr }

; Function Attrs: mustprogress nounwind uwtable
define internal void @"_ZN4llvm12function_refIFbPKN5clang16CXXBaseSpecifierERNS1_11CXXBasePathEEEC2IZNKS1_13CXXRecordDecl13isDerivedFromEPKSA_RNS1_12CXXBasePathsEE3$_0EEOT_PNSt9enable_ifIXntsr3std7is_sameINS_12remove_cvrefISG_E4typeES8_EE5valueEvE4typeEPNSI_IXooL_ZNSt17integral_constantIbLb0EE5valueEEsr3std14is_convertibleIDTclclsr3stdE7declvalISG_EEclL_ZSt7declvalIS4_EDTcl9__declvalISG_ELi0EEEvEEclL_ZSR_IS6_ESS_vEEEEbEE5valueEvE4typeE"(ptr noundef nonnull align 8 dereferenceable(16) %0, ptr noundef nonnull align 8 dereferenceable(8) %1, ptr noundef %2, ptr noundef %3) unnamed_addr #0 align 2 {
  %5 = alloca ptr, align 8
  %6 = alloca ptr, align 8
  %7 = alloca ptr, align 8
  %8 = alloca ptr, align 8
  store ptr %0, ptr %5, align 8
  store ptr %1, ptr %6, align 8
  store ptr %2, ptr %7, align 8
  store ptr %3, ptr %8, align 8
  %9 = load ptr, ptr %5, align 8
  %10 = getelementptr inbounds nuw %"class.llvm::function_ref", ptr %9, i32 0, i32 0
  store ptr @"_ZN4llvm12function_refIFbPKN5clang16CXXBaseSpecifierERNS1_11CXXBasePathEEE11callback_fnIZNKS1_13CXXRecordDecl13isDerivedFromEPKSA_RNS1_12CXXBasePathsEE3$_0EEblS4_S6_", ptr %10, align 8
  %11 = getelementptr inbounds nuw %"class.llvm::function_ref", ptr %9, i32 0, i32 1
  %12 = load ptr, ptr %6, align 8
  %13 = ptrtoint ptr %12 to i64
  store i64 %13, ptr %11, align 8
  ret void
}

; Function Attrs: mustprogress nounwind uwtable
define linkonce_odr hidden void @_ZN5clang12CXXBasePaths9setOriginEPKNS_13CXXRecordDeclE(ptr noundef nonnull align 8 dereferenceable(371) %0, ptr noundef %1) #0 comdat align 2 {
  %3 = alloca ptr, align 8
  %4 = alloca ptr, align 8
  store ptr %0, ptr %3, align 8
  store ptr %1, ptr %4, align 8
  %5 = load ptr, ptr %3, align 8
  %6 = load ptr, ptr %4, align 8
  %7 = getelementptr inbounds nuw %"class.clang::CXXBasePaths", ptr %5, i32 0, i32 0
  store ptr %6, ptr %7, align 8
  ret void
}

; Function Attrs: mustprogress nounwind uwtable
define linkonce_odr hidden noundef ptr @_ZNK5clang13CXXRecordDecl16getCanonicalDeclEv(ptr noundef nonnull align 8 dereferenceable(144) %0) #0 comdat align 2 {
  %2 = alloca ptr, align 8
  store ptr %0, ptr %2, align 8
  %3 = load ptr, ptr %2, align 8
  %4 = load ptr, ptr %3, align 8
  %5 = getelementptr inbounds ptr, ptr %4, i64 4
  %6 = load ptr, ptr %5, align 8
  %7 = call noundef ptr %6(ptr noundef nonnull align 8 dereferenceable(144) %3)
  ret ptr %7
}

; Function Attrs: mustprogress nounwind uwtable
define dso_local noundef zeroext i1 @_ZNK5clang13CXXRecordDecl13isDerivedFromEPKS0_RNS_12CXXBasePathsE(ptr noundef nonnull align 8 dereferenceable(144) %0, ptr noundef %1, ptr noundef nonnull align 8 dereferenceable(371) %2) #0 align 2 {
  %4 = alloca i1, align 1
  %5 = alloca ptr, align 8
  %6 = alloca ptr, align 8
  %7 = alloca ptr, align 8
  %8 = alloca ptr, align 8
  %9 = alloca %"class.llvm::function_ref", align 8
  %10 = alloca %class.anon, align 8
  store ptr %0, ptr %5, align 8
  store ptr %1, ptr %6, align 8
  store ptr %2, ptr %7, align 8
  %11 = load ptr, ptr %5, align 8
  %12 = call noundef ptr @_ZNK5clang13CXXRecordDecl16getCanonicalDeclEv(ptr noundef nonnull align 8 dereferenceable(144) %11)
  %13 = load ptr, ptr %6, align 8
  %14 = call noundef ptr @_ZNK5clang13CXXRecordDecl16getCanonicalDeclEv(ptr noundef nonnull align 8 dereferenceable(144) %13)
  %15 = icmp eq ptr %12, %14
  br i1 %15, label %16, label %17

16:                                               ; preds = %3
  store i1 false, ptr %4, align 1
  br label %29

17:                                               ; preds = %3
  %18 = load ptr, ptr %7, align 8
  call void @_ZN5clang12CXXBasePaths9setOriginEPKNS_13CXXRecordDeclE(ptr noundef nonnull align 8 dereferenceable(371) %18, ptr noundef %11)
  %19 = load ptr, ptr %6, align 8
  %20 = call noundef ptr @_ZNK5clang13CXXRecordDecl16getCanonicalDeclEv(ptr noundef nonnull align 8 dereferenceable(144) %19)
  store ptr %20, ptr %8, align 8
  %21 = getelementptr inbounds nuw %class.anon, ptr %10, i32 0, i32 0
  %22 = load ptr, ptr %8, align 8
  store ptr %22, ptr %21, align 8
  call void @"_ZN4llvm12function_refIFbPKN5clang16CXXBaseSpecifierERNS1_11CXXBasePathEEEC2IZNKS1_13CXXRecordDecl13isDerivedFromEPKSA_RNS1_12CXXBasePathsEE3$_0EEOT_PNSt9enable_ifIXntsr3std7is_sameINS_12remove_cvrefISG_E4typeES8_EE5valueEvE4typeEPNSI_IXooL_ZNSt17integral_constantIbLb0EE5valueEEsr3std14is_convertibleIDTclclsr3stdE7declvalISG_EEclL_ZSt7declvalIS4_EDTcl9__declvalISG_ELi0EEEvEEclL_ZSR_IS6_ESS_vEEEEbEE5valueEvE4typeE"(ptr noundef nonnull align 8 dereferenceable(16) %9, ptr noundef nonnull align 8 dereferenceable(8) %10, ptr noundef null, ptr noundef null)
  %23 = load ptr, ptr %7, align 8
  %24 = getelementptr inbounds nuw { ptr, i64 }, ptr %9, i32 0, i32 0
  %25 = load ptr, ptr %24, align 8
  %26 = getelementptr inbounds nuw { ptr, i64 }, ptr %9, i32 0, i32 1
  %27 = load i64, ptr %26, align 8
  %28 = call noundef zeroext i1 @_ZNK5clang13CXXRecordDecl13lookupInBasesEN4llvm12function_refIFbPKNS_16CXXBaseSpecifierERNS_11CXXBasePathEEEERNS_12CXXBasePathsEb(ptr noundef nonnull align 8 dereferenceable(144) %11, ptr %25, i64 %27, ptr noundef nonnull align 8 dereferenceable(371) %23, i1 noundef zeroext false)
  store i1 %28, ptr %4, align 1
  br label %29

29:                                               ; preds = %17, %16
  %30 = load i1, ptr %4, align 1
  ret i1 %30
}