; Function Attrs: mustprogress nounwind uwtable
define dso_local noundef zeroext i1 @_ZNK5clang13CXXRecordDecl13isDerivedFromEPKS0_RNS_12CXXBasePathsE(ptr noundef nonnull align 8 dereferenceable(144) %0, ptr noundef %1, ptr noundef nonnull align 8 dereferenceable(371) %2) local_unnamed_addr #0 align 2 {
  %4 = alloca %class.anon, align 8
  %5 = load ptr, ptr %0, align 8
  %6 = getelementptr inbounds i8, ptr %5, i64 32
  %7 = load ptr, ptr %6, align 8
  %8 = tail call noundef ptr %7(ptr noundef nonnull align 8 dereferenceable(144) %0) #15
  %9 = load ptr, ptr %1, align 8
  %10 = getelementptr inbounds i8, ptr %9, i64 32
  %11 = load ptr, ptr %10, align 8
  %12 = tail call noundef ptr %11(ptr noundef nonnull align 8 dereferenceable(144) %1) #15
  %13 = icmp eq ptr %8, %12
  br i1 %13, label %21, label %14

14:                                               ; preds = %3
  store ptr %0, ptr %2, align 8
  %15 = load ptr, ptr %1, align 8
  %16 = getelementptr inbounds i8, ptr %15, i64 32
  %17 = load ptr, ptr %16, align 8
  %18 = tail call noundef ptr %17(ptr noundef nonnull align 8 dereferenceable(144) %1) #15
  store ptr %18, ptr %4, align 8
  %19 = ptrtoint ptr %4 to i64
  %20 = call noundef zeroext i1 @_ZNK5clang13CXXRecordDecl13lookupInBasesEN4llvm12function_refIFbPKNS_16CXXBaseSpecifierERNS_11CXXBasePathEEEERNS_12CXXBasePathsEb(ptr noundef nonnull align 8 dereferenceable(144) %0, ptr nonnull @"_ZN4llvm12function_refIFbPKN5clang16CXXBaseSpecifierERNS1_11CXXBasePathEEE11callback_fnIZNKS1_13CXXRecordDecl13isDerivedFromEPKSA_RNS1_12CXXBasePathsEE3$_0EEblS4_S6_", i64 %19, ptr noundef nonnull align 8 dereferenceable(371) %2, i1 noundef zeroext false)
  br label %21

21:                                               ; preds = %3, %14
  %.0 = phi i1 [ %20, %14 ], [ false, %3 ]
  ret i1 %.0
}